; Function Attrs: mustprogress uwtable
define noundef zeroext i1 @_ZNK3g2o21ParameterStereoCamera5writeERSo(ptr noundef nonnull align 16 dereferenceable(496) %0, ptr noundef nonnull align 8 dereferenceable(8) %1) unnamed_addr #4 align 2 {
  %3 = tail call noundef zeroext i1 @_ZNK3g2o15ParameterCamera5writeERSo(ptr noundef nonnull align 16 dereferenceable(488) %0, ptr noundef nonnull align 8 dereferenceable(8) %1)
  %4 = getelementptr inbounds nuw i8, ptr %0, i64 488
  %5 = load double, ptr %4, align 8, !tbaa !6
  %6 = tail call noundef nonnull align 8 dereferenceable(8) ptr @_ZNSo9_M_insertIdEERSoT_(ptr noundef nonnull align 8 dereferenceable(8) %1, double noundef %5)
  %7 = tail call noundef nonnull align 8 dereferenceable(8) ptr @_ZSt16__ostream_insertIcSt11char_traitsIcEERSt13basic_ostreamIT_T0_ES6_PKS3_l(ptr noundef nonnull align 8 dereferenceable(8) %6, ptr noundef nonnull @.str, i64 noundef 1)
  br i1 %3, label %8, label %16

8:                                                ; preds = %2
  %9 = load ptr, ptr %1, align 8, !tbaa !3
  %10 = getelementptr i8, ptr %9, i64 -24
  %11 = load i64, ptr %10, align 8
  %12 = getelementptr inbounds i8, ptr %1, i64 %11
  %13 = getelementptr inbounds nuw i8, ptr %12, i64 32
  %14 = load i32, ptr %13, align 8, !tbaa !24
  %15 = icmp eq i32 %14, 0
  br label %16

16:                                               ; preds = %8, %2
  %17 = phi i1 [ false, %2 ], [ %15, %8 ]
  ret i1 %17
}